target datalayout = "e-m:e-p270:32:32-p271:32:32-p272:64:64-i64:64-i128:128-f80:128-n8:16:32:64-S128"
target triple = "x86_64-pc-linux-gnu"

%struct.pointf_s = type { double, double }
%struct.GVJ_s = type { ptr, ptr, ptr, ptr, ptr, ptr, i32, ptr, ptr, ptr, ptr, i64, i64, ptr, i32, %struct.gvplugin_active_render_s, %struct.gvplugin_active_device_s, %struct.gvplugin_active_loadimage_t, ptr, %struct.pointf_s, i8, ptr, i32, ptr, i8, ptr, i32, i32, i32, %struct.point, %struct.point, %struct.point, %struct.point, %struct.point, i32, %struct.boxf, %struct.pointf_s, %struct.boxf, %struct.boxf, %struct.pointf_s, %struct.pointf_s, double, i32, %struct.pointf_s, %struct.boxf, %struct.pointf_s, %struct.pointf_s, i32, i32, %struct.box, %struct.box, %struct.pointf_s, %struct.pointf_s, %struct.pointf_s, i8, i8, i8, i8, i8, i8, %struct.pointf_s, %struct.pointf_s, ptr, ptr, ptr, ptr, ptr, ptr, i64, ptr }
%struct.gvplugin_active_render_s = type { ptr, i32, ptr, ptr }
%struct.gvplugin_active_device_s = type { ptr, i32, ptr, ptr }
%struct.gvplugin_active_loadimage_t = type { ptr, i32, ptr }
%struct.point = type { i32, i32 }
%struct.boxf = type { %struct.pointf_s, %struct.pointf_s }
%struct.box = type { %struct.point, %struct.point }
%struct.color_s = type { %union.anon, i32 }
%union.anon = type { [4 x double] }
%struct.obj_state_s = type { ptr, i32, %union.anon.0, i32, %struct.color_s, %struct.color_s, %struct.color_s, i32, double, i32, i32, double, ptr, double, double, double, ptr, ptr, ptr, ptr, ptr, ptr, ptr, ptr, ptr, ptr, ptr, ptr, ptr, ptr, ptr, ptr, ptr, i16, i32, i64, ptr, i64, ptr, ptr, i32, ptr, i32, ptr }
%union.anon.0 = type { ptr }

@.str.33 = private unnamed_addr constant [10 x i8] c"</title>\0A\00", align 1
@.str.35 = private unnamed_addr constant [10 x i8] c">\0A<title>\00", align 1
@.str.37 = private unnamed_addr constant [5 x i8] c"edge\00", align 1
@.str.38 = private unnamed_addr constant [3 x i8] c"\\E\00", align 1

; Function Attrs: nounwind uwtable
define internal void @svg_begin_edge(ptr noundef %0) #0 {
  %2 = alloca ptr, align 8
  %3 = alloca ptr, align 8
  %4 = alloca ptr, align 8
  store ptr %0, ptr %2, align 8, !tbaa !3
  call void @llvm.lifetime.start.p0(i64 8, ptr %3) #9
  %5 = load ptr, ptr %2, align 8, !tbaa !3
  %6 = getelementptr inbounds nuw %struct.GVJ_s, ptr %5, i32 0, i32 4
  %7 = load ptr, ptr %6, align 8, !tbaa !50
  store ptr %7, ptr %3, align 8, !tbaa !51
  call void @llvm.lifetime.start.p0(i64 8, ptr %4) #9
  %8 = load ptr, ptr %2, align 8, !tbaa !3
  %9 = load ptr, ptr %3, align 8, !tbaa !51
  %10 = getelementptr inbounds nuw %struct.obj_state_s, ptr %9, i32 0, i32 21
  %11 = load ptr, ptr %10, align 8, !tbaa !61
  %12 = load ptr, ptr %3, align 8, !tbaa !51
  %13 = getelementptr inbounds nuw %struct.obj_state_s, ptr %12, i32 0, i32 2
  %14 = load ptr, ptr %13, align 8, !tbaa !47
  call void @svg_print_id_class(ptr noundef %8, ptr noundef %11, ptr noundef null, ptr noundef @.str.37, ptr noundef %14)
  %15 = load ptr, ptr %2, align 8, !tbaa !3
  %16 = call i32 @gvputs(ptr noundef %15, ptr noundef @.str.35)
  %17 = load ptr, ptr %3, align 8, !tbaa !51
  %18 = getelementptr inbounds nuw %struct.obj_state_s, ptr %17, i32 0, i32 2
  %19 = load ptr, ptr %18, align 8, !tbaa !47
  %20 = call ptr @strdup_and_subst_obj(ptr noundef @.str.38, ptr noundef %19)
  store ptr %20, ptr %4, align 8, !tbaa !46
  %21 = load ptr, ptr %2, align 8, !tbaa !3
  %22 = load ptr, ptr %4, align 8, !tbaa !46
  %23 = call i32 @gvputs_xml(ptr noundef %21, ptr noundef %22)
  %24 = load ptr, ptr %4, align 8, !tbaa !46
  call void @free(ptr noundef %24) #9
  %25 = load ptr, ptr %2, align 8, !tbaa !3
  %26 = call i32 @gvputs(ptr noundef %25, ptr noundef @.str.33)
  call void @llvm.lifetime.end.p0(i64 8, ptr %4) #9
  call void @llvm.lifetime.end.p0(i64 8, ptr %3) #9
  ret void
}